target datalayout = "e-m:e-p270:32:32-p271:32:32-p272:64:64-i64:64-i128:128-f80:128-n8:16:32:64-S128"
target triple = "x86_64-pc-linux-gnu"

%struct.Tuplestorestate = type { i32, i32, i8, i8, i8, i8, i64, i64, i64, i64, ptr, ptr, ptr, ptr, ptr, ptr, ptr, i32, i32, i32, i8, ptr, i32, i32, i32, i32, i64 }
%struct.TSReadPointer = type { i32, i8, i32, i32, i64 }

@.str.1 = private unnamed_addr constant [13 x i8] c"tuplestore.c\00", align 1
@.str.3 = private unnamed_addr constant [44 x i8] c"could not seek in tuplestore temporary file\00", align 1
@__func__.tuplestore_select_read_pointer = private unnamed_addr constant [31 x i8] c"tuplestore_select_read_pointer\00", align 1
@.str.4 = private unnamed_addr constant [25 x i8] c"invalid tuplestore state\00", align 1

; Function Attrs: nounwind uwtable
define dso_local void @tuplestore_select_read_pointer(ptr noundef %0, i32 noundef %1) #0 {
  %3 = alloca ptr, align 8
  %4 = alloca i32, align 4
  %5 = alloca ptr, align 8
  %6 = alloca ptr, align 8
  %7 = alloca i32, align 4
  store ptr %0, ptr %3, align 8
  store i32 %1, ptr %4, align 4
  call void @llvm.lifetime.start.p0(i64 8, ptr %5) #7
  call void @llvm.lifetime.start.p0(i64 8, ptr %6) #7
  %8 = load i32, ptr %4, align 4
  %9 = load ptr, ptr %3, align 8
  %10 = getelementptr inbounds nuw %struct.Tuplestorestate, ptr %9, i32 0, i32 22
  %11 = load i32, ptr %10, align 8
  %12 = icmp eq i32 %8, %11
  br i1 %12, label %13, label %14

13:                                               ; preds = %2
  store i32 1, ptr %7, align 4
  br label %117

14:                                               ; preds = %2
  %15 = load ptr, ptr %3, align 8
  %16 = getelementptr inbounds nuw %struct.Tuplestorestate, ptr %15, i32 0, i32 21
  %17 = load ptr, ptr %16, align 8
  %18 = load i32, ptr %4, align 4
  %19 = sext i32 %18 to i64
  %20 = getelementptr inbounds %struct.TSReadPointer, ptr %17, i64 %19
  store ptr %20, ptr %5, align 8
  %21 = load ptr, ptr %3, align 8
  %22 = getelementptr inbounds nuw %struct.Tuplestorestate, ptr %21, i32 0, i32 21
  %23 = load ptr, ptr %22, align 8
  %24 = load ptr, ptr %3, align 8
  %25 = getelementptr inbounds nuw %struct.Tuplestorestate, ptr %24, i32 0, i32 22
  %26 = load i32, ptr %25, align 8
  %27 = sext i32 %26 to i64
  %28 = getelementptr inbounds %struct.TSReadPointer, ptr %23, i64 %27
  store ptr %28, ptr %6, align 8
  %29 = load ptr, ptr %3, align 8
  %30 = getelementptr inbounds nuw %struct.Tuplestorestate, ptr %29, i32 0, i32 0
  %31 = load i32, ptr %30, align 8
  switch i32 %31, label %102 [
    i32 0, label %32
    i32 1, label %32
    i32 2, label %33
  ]

32:                                               ; preds = %14, %14
  br label %113

33:                                               ; preds = %14
  %34 = load ptr, ptr %6, align 8
  %35 = getelementptr inbounds nuw %struct.TSReadPointer, ptr %34, i32 0, i32 1
  %36 = load i8, ptr %35, align 4, !range !4, !noundef !5
  %37 = trunc i8 %36 to i1
  br i1 %37, label %46, label %38

38:                                               ; preds = %33
  %39 = load ptr, ptr %3, align 8
  %40 = getelementptr inbounds nuw %struct.Tuplestorestate, ptr %39, i32 0, i32 10
  %41 = load ptr, ptr %40, align 8
  %42 = load ptr, ptr %6, align 8
  %43 = getelementptr inbounds nuw %struct.TSReadPointer, ptr %42, i32 0, i32 3
  %44 = load ptr, ptr %6, align 8
  %45 = getelementptr inbounds nuw %struct.TSReadPointer, ptr %44, i32 0, i32 4
  call void @BufFileTell(ptr noundef %41, ptr noundef %43, ptr noundef %45)
  br label %46

46:                                               ; preds = %38, %33
  %47 = load ptr, ptr %5, align 8
  %48 = getelementptr inbounds nuw %struct.TSReadPointer, ptr %47, i32 0, i32 1
  %49 = load i8, ptr %48, align 4, !range !4, !noundef !5
  %50 = trunc i8 %49 to i1
  br i1 %50, label %51, label %76

51:                                               ; preds = %46
  %52 = load ptr, ptr %3, align 8
  %53 = getelementptr inbounds nuw %struct.Tuplestorestate, ptr %52, i32 0, i32 10
  %54 = load ptr, ptr %53, align 8
  %55 = load ptr, ptr %3, align 8
  %56 = getelementptr inbounds nuw %struct.Tuplestorestate, ptr %55, i32 0, i32 25
  %57 = load i32, ptr %56, align 4
  %58 = load ptr, ptr %3, align 8
  %59 = getelementptr inbounds nuw %struct.Tuplestorestate, ptr %58, i32 0, i32 26
  %60 = load i64, ptr %59, align 8
  %61 = call i32 @BufFileSeek(ptr noundef %54, i32 noundef %57, i64 noundef %60, i32 noundef 0)
  %62 = icmp ne i32 %61, 0
  br i1 %62, label %63, label %75

63:                                               ; preds = %51
  br label %64

64:                                               ; preds = %63
  br i1 true, label %65, label %67

65:                                               ; preds = %64
  %66 = call zeroext i1 @errstart_cold(i32 noundef 21, ptr noundef null) #8
  br i1 %66, label %69, label %72

67:                                               ; preds = %64
  %68 = call zeroext i1 @errstart(i32 noundef 21, ptr noundef null)
  br i1 %68, label %69, label %72

69:                                               ; preds = %67, %65
  %70 = call i32 @errcode_for_file_access()
  %71 = call i32 (ptr, ...) @errmsg(ptr noundef @.str.3)
  call void @errfinish(ptr noundef @.str.1, i32 noundef 552, ptr noundef @__func__.tuplestore_select_read_pointer)
  br label %72

72:                                               ; preds = %69, %67, %65
  unreachable

73:                                               ; No predecessors!
  br label %74

74:                                               ; preds = %73
  br label %75

75:                                               ; preds = %74, %51
  br label %101

76:                                               ; preds = %46
  %77 = load ptr, ptr %3, align 8
  %78 = getelementptr inbounds nuw %struct.Tuplestorestate, ptr %77, i32 0, i32 10
  %79 = load ptr, ptr %78, align 8
  %80 = load ptr, ptr %5, align 8
  %81 = getelementptr inbounds nuw %struct.TSReadPointer, ptr %80, i32 0, i32 3
  %82 = load i32, ptr %81, align 4
  %83 = load ptr, ptr %5, align 8
  %84 = getelementptr inbounds nuw %struct.TSReadPointer, ptr %83, i32 0, i32 4
  %85 = load i64, ptr %84, align 8
  %86 = call i32 @BufFileSeek(ptr noundef %79, i32 noundef %82, i64 noundef %85, i32 noundef 0)
  %87 = icmp ne i32 %86, 0
  br i1 %87, label %88, label %100

88:                                               ; preds = %76
  br label %89

89:                                               ; preds = %88
  br i1 true, label %90, label %92

90:                                               ; preds = %89
  %91 = call zeroext i1 @errstart_cold(i32 noundef 21, ptr noundef null) #8
  br i1 %91, label %94, label %97

92:                                               ; preds = %89
  %93 = call zeroext i1 @errstart(i32 noundef 21, ptr noundef null)
  br i1 %93, label %94, label %97

94:                                               ; preds = %92, %90
  %95 = call i32 @errcode_for_file_access()
  %96 = call i32 (ptr, ...) @errmsg(ptr noundef @.str.3)
  call void @errfinish(ptr noundef @.str.1, i32 noundef 562, ptr noundef @__func__.tuplestore_select_read_pointer)
  br label %97

97:                                               ; preds = %94, %92, %90
  unreachable

98:                                               ; No predecessors!
  br label %99

99:                                               ; preds = %98
  br label %100

100:                                              ; preds = %99, %76
  br label %101

101:                                              ; preds = %100, %75
  br label %113

102:                                              ; preds = %14
  br label %103

103:                                              ; preds = %102
  br i1 true, label %104, label %106

104:                                              ; preds = %103
  %105 = call zeroext i1 @errstart_cold(i32 noundef 21, ptr noundef null) #8
  br i1 %105, label %108, label %110

106:                                              ; preds = %103
  %107 = call zeroext i1 @errstart(i32 noundef 21, ptr noundef null)
  br i1 %107, label %108, label %110

108:                                              ; preds = %106, %104
  %109 = call i32 (ptr, ...) @errmsg_internal(ptr noundef @.str.4)
  call void @errfinish(ptr noundef @.str.1, i32 noundef 566, ptr noundef @__func__.tuplestore_select_read_pointer)
  br label %110

110:                                              ; preds = %108, %106, %104
  unreachable

111:                                              ; No predecessors!
  br label %112

112:                                              ; preds = %111
  br label %113

113:                                              ; preds = %112, %101, %32
  %114 = load i32, ptr %4, align 4
  %115 = load ptr, ptr %3, align 8
  %116 = getelementptr inbounds nuw %struct.Tuplestorestate, ptr %115, i32 0, i32 22
  store i32 %114, ptr %116, align 8
  store i32 0, ptr %7, align 4
  br label %117

117:                                              ; preds = %113, %13
  call void @llvm.lifetime.end.p0(i64 8, ptr %6) #7
  call void @llvm.lifetime.end.p0(i64 8, ptr %5) #7
  %118 = load i32, ptr %7, align 4
  switch i32 %118, label %120 [
    i32 0, label %119
    i32 1, label %119
  ]

119:                                              ; preds = %117, %117
  ret void

120:                                              ; preds = %117
  unreachable
}