; Function Attrs: nounwind uwtable
define dso_local void @tuplestore_select_read_pointer(ptr noundef captures(none) %0, i32 noundef %1) local_unnamed_addr #0 {
  %3 = getelementptr inbounds nuw i8, ptr %0, i64 128
  %4 = load i32, ptr %3, align 8
  %5 = icmp eq i32 %1, %4
  br i1 %5, label %53, label %6

6:                                                ; preds = %2
  %7 = getelementptr inbounds nuw i8, ptr %0, i64 120
  %8 = load ptr, ptr %7, align 8
  %9 = sext i32 %1 to i64
  %10 = getelementptr inbounds %struct.TSReadPointer, ptr %8, i64 %9
  %11 = sext i32 %4 to i64
  %12 = getelementptr inbounds %struct.TSReadPointer, ptr %8, i64 %11
  %13 = load i32, ptr %0, align 8
  switch i32 %13, label %49 [
    i32 0, label %52
    i32 1, label %52
    i32 2, label %14
  ]

14:                                               ; preds = %6
  %15 = getelementptr inbounds nuw i8, ptr %12, i64 4
  %16 = load i8, ptr %15, align 4, !range !4, !noundef !5
  %17 = trunc nuw i8 %16 to i1
  br i1 %17, label %23, label %18

18:                                               ; preds = %14
  %19 = getelementptr inbounds nuw i8, ptr %0, i64 48
  %20 = load ptr, ptr %19, align 8
  %21 = getelementptr inbounds nuw i8, ptr %12, i64 12
  %22 = getelementptr inbounds nuw i8, ptr %12, i64 16
  tail call void @BufFileTell(ptr noundef %20, ptr noundef nonnull %21, ptr noundef nonnull %22) #9
  br label %23

23:                                               ; preds = %18, %14
  %24 = getelementptr inbounds nuw i8, ptr %10, i64 4
  %25 = load i8, ptr %24, align 4, !range !4, !noundef !5
  %26 = trunc nuw i8 %25 to i1
  %27 = getelementptr inbounds nuw i8, ptr %0, i64 48
  %28 = load ptr, ptr %27, align 8
  br i1 %26, label %29, label %39

29:                                               ; preds = %23
  %30 = getelementptr inbounds nuw i8, ptr %0, i64 140
  %31 = load i32, ptr %30, align 4
  %32 = getelementptr inbounds nuw i8, ptr %0, i64 144
  %33 = load i64, ptr %32, align 8
  %34 = tail call i32 @BufFileSeek(ptr noundef %28, i32 noundef %31, i64 noundef %33, i32 noundef 0) #9
  %.not20 = icmp eq i32 %34, 0
  br i1 %.not20, label %52, label %35

35:                                               ; preds = %29
  %36 = tail call zeroext i1 @errstart_cold(i32 noundef 21, ptr noundef null) #10
  tail call void @llvm.assume(i1 %36)
  %37 = tail call i32 @errcode_for_file_access() #9
  %38 = tail call i32 (ptr, ...) @errmsg(ptr noundef nonnull @.str.3) #9
  tail call void @errfinish(ptr noundef nonnull @.str.1, i32 noundef 552, ptr noundef nonnull @__func__.tuplestore_select_read_pointer) #9
  unreachable

39:                                               ; preds = %23
  %40 = getelementptr inbounds nuw i8, ptr %10, i64 12
  %41 = load i32, ptr %40, align 4
  %42 = getelementptr inbounds nuw i8, ptr %10, i64 16
  %43 = load i64, ptr %42, align 8
  %44 = tail call i32 @BufFileSeek(ptr noundef %28, i32 noundef %41, i64 noundef %43, i32 noundef 0) #9
  %.not = icmp eq i32 %44, 0
  br i1 %.not, label %52, label %45

45:                                               ; preds = %39
  %46 = tail call zeroext i1 @errstart_cold(i32 noundef 21, ptr noundef null) #10
  tail call void @llvm.assume(i1 %46)
  %47 = tail call i32 @errcode_for_file_access() #9
  %48 = tail call i32 (ptr, ...) @errmsg(ptr noundef nonnull @.str.3) #9
  tail call void @errfinish(ptr noundef nonnull @.str.1, i32 noundef 562, ptr noundef nonnull @__func__.tuplestore_select_read_pointer) #9
  unreachable

49:                                               ; preds = %6
  %50 = tail call zeroext i1 @errstart_cold(i32 noundef 21, ptr noundef null) #10
  tail call void @llvm.assume(i1 %50)
  %51 = tail call i32 (ptr, ...) @errmsg_internal(ptr noundef nonnull @.str.4) #9
  tail call void @errfinish(ptr noundef nonnull @.str.1, i32 noundef 566, ptr noundef nonnull @__func__.tuplestore_select_read_pointer) #9
  unreachable

52:                                               ; preds = %29, %39, %6, %6
  store i32 %1, ptr %3, align 8
  br label %53

53:                                               ; preds = %2, %52
  ret void
}